target datalayout = "e-m:e-p270:32:32-p271:32:32-p272:64:64-i64:64-i128:128-f80:128-n8:16:32:64-S128"
target triple = "x86_64-unknown-linux-gnu"

%"class.std::__cxx11::basic_string" = type { %"struct.std::__cxx11::basic_string<char>::_Alloc_hider", i64, %union.anon.1 }
%"struct.std::__cxx11::basic_string<char>::_Alloc_hider" = type { ptr }
%union.anon.1 = type { i64, [8 x i8] }
%"struct.std::_Rb_tree_key_compare" = type { %"struct.std::less" }
%"struct.std::less" = type { i8 }
%"struct.std::_Rb_tree_header" = type { %"struct.std::_Rb_tree_node_base", i64 }
%"struct.std::_Rb_tree_node_base" = type { i32, ptr, ptr, ptr }
%"class.nlohmann::json_abi_v3_11_3::basic_json.185" = type { %"struct.nlohmann::json_abi_v3_11_3::basic_json<std::map, std::vector, std::__cxx11::basic_string<char>, bool, long, unsigned long, double, (anonymous namespace)::allocator_no_forward>::data" }
%"struct.nlohmann::json_abi_v3_11_3::basic_json<std::map, std::vector, std::__cxx11::basic_string<char>, bool, long, unsigned long, double, (anonymous namespace)::allocator_no_forward>::data" = type { i8, %"union.nlohmann::json_abi_v3_11_3::basic_json<std::map, std::vector, std::__cxx11::basic_string<char>, bool, long, unsigned long, double, (anonymous namespace)::allocator_no_forward>::json_value" }
%"union.nlohmann::json_abi_v3_11_3::basic_json<std::map, std::vector, std::__cxx11::basic_string<char>, bool, long, unsigned long, double, (anonymous namespace)::allocator_no_forward>::json_value" = type { ptr }
%"class.std::_Rb_tree.205" = type { %"struct.std::_Rb_tree<std::__cxx11::basic_string<char>, std::pair<const std::__cxx11::basic_string<char>, nlohmann::json_abi_v3_11_3::basic_json<std::map, std::vector, std::__cxx11::basic_string<char>, bool, long, unsigned long, double, (anonymous namespace)::allocator_no_forward>>, std::_Select1st<std::pair<const std::__cxx11::basic_string<char>, nlohmann::json_abi_v3_11_3::basic_json<std::map, std::vector, std::__cxx11::basic_string<char>, bool, long, unsigned long, double, (anonymous namespace)::allocator_no_forward>>>, std::less<std::__cxx11::basic_string<char>>, (anonymous namespace)::allocator_no_forward<std::pair<const std::__cxx11::basic_string<char>, nlohmann::json_abi_v3_11_3::basic_json<std::map, std::vector, std::__cxx11::basic_string<char>, bool, long, unsigned long, double, (anonymous namespace)::allocator_no_forward>>>>::_Rb_tree_impl" }
%"struct.std::_Rb_tree<std::__cxx11::basic_string<char>, std::pair<const std::__cxx11::basic_string<char>, nlohmann::json_abi_v3_11_3::basic_json<std::map, std::vector, std::__cxx11::basic_string<char>, bool, long, unsigned long, double, (anonymous namespace)::allocator_no_forward>>, std::_Select1st<std::pair<const std::__cxx11::basic_string<char>, nlohmann::json_abi_v3_11_3::basic_json<std::map, std::vector, std::__cxx11::basic_string<char>, bool, long, unsigned long, double, (anonymous namespace)::allocator_no_forward>>>, std::less<std::__cxx11::basic_string<char>>, (anonymous namespace)::allocator_no_forward<std::pair<const std::__cxx11::basic_string<char>, nlohmann::json_abi_v3_11_3::basic_json<std::map, std::vector, std::__cxx11::basic_string<char>, bool, long, unsigned long, double, (anonymous namespace)::allocator_no_forward>>>>::_Rb_tree_impl" = type { %"struct.std::_Rb_tree_key_compare", %"struct.std::_Rb_tree_header" }
%"struct.std::pair.246" = type { %"class.std::__cxx11::basic_string", %"class.nlohmann::json_abi_v3_11_3::basic_json.185" }
%"struct.std::_Rb_tree_node.248" = type { %"struct.std::_Rb_tree_node_base", %"struct.__gnu_cxx::__aligned_membuf.249" }
%"struct.__gnu_cxx::__aligned_membuf.249" = type { [48 x i8] }

; Function Attrs: mustprogress nounwind uwtable
define internal void @_ZNSt15__new_allocatorISt13_Rb_tree_nodeISt4pairIKNSt7__cxx1112basic_stringIcSt11char_traitsIcESaIcEEEN8nlohmann16json_abi_v3_11_310basic_jsonISt3mapSt6vectorS7_blmdN12_GLOBAL__N_120allocator_no_forwardENSA_14adl_serializerESD_IhSaIhEEvEEEEE10deallocateEPSL_m(ptr noundef nonnull align 1 dereferenceable(1) %this, ptr noundef %__p, i64 noundef %__n) #1 align 2 {
entry:
  %this.addr = alloca ptr, align 8
  %__p.addr = alloca ptr, align 8
  %__n.addr = alloca i64, align 8
  store ptr %this, ptr %this.addr, align 8
  store ptr %__p, ptr %__p.addr, align 8
  store i64 %__n, ptr %__n.addr, align 8
  %0 = load ptr, ptr %__p.addr, align 8
  call void @_ZdlPv(ptr noundef %0) #18
  ret void
}

; Function Attrs: mustprogress uwtable
define internal void @_ZNSt4pairIKNSt7__cxx1112basic_stringIcSt11char_traitsIcESaIcEEEN8nlohmann16json_abi_v3_11_310basic_jsonISt3mapSt6vectorS5_blmdN12_GLOBAL__N_120allocator_no_forwardENS8_14adl_serializerESB_IhSaIhEEvEEEC2ERKSI_(ptr noundef nonnull align 8 dereferenceable(48) %this, ptr noundef nonnull align 8 dereferenceable(48) %0) unnamed_addr #4 align 2 personality ptr @__gxx_personality_v0 {
entry:
  %this.addr = alloca ptr, align 8
  %.addr = alloca ptr, align 8
  %exn.slot = alloca ptr, align 8
  %ehselector.slot = alloca i32, align 4
  store ptr %this, ptr %this.addr, align 8
  store ptr %0, ptr %.addr, align 8
  %this1 = load ptr, ptr %this.addr, align 8
  %first = getelementptr inbounds %"struct.std::pair.246", ptr %this1, i32 0, i32 0
  %1 = load ptr, ptr %.addr, align 8
  %first2 = getelementptr inbounds %"struct.std::pair.246", ptr %1, i32 0, i32 0
  call void @_ZNSt7__cxx1112basic_stringIcSt11char_traitsIcESaIcEEC1ERKS4_(ptr noundef nonnull align 8 dereferenceable(32) %first, ptr noundef nonnull align 8 dereferenceable(32) %first2)
  %second = getelementptr inbounds %"struct.std::pair.246", ptr %this1, i32 0, i32 1
  %2 = load ptr, ptr %.addr, align 8
  %second3 = getelementptr inbounds %"struct.std::pair.246", ptr %2, i32 0, i32 1
  invoke void @_ZN8nlohmann16json_abi_v3_11_310basic_jsonISt3mapSt6vectorNSt7__cxx1112basic_stringIcSt11char_traitsIcESaIcEEEblmdN12_GLOBAL__N_120allocator_no_forwardENS0_14adl_serializerES3_IhSaIhEEvEC2ERKSF_(ptr noundef nonnull align 8 dereferenceable(16) %second, ptr noundef nonnull align 8 dereferenceable(16) %second3)
          to label %invoke.cont unwind label %lpad

invoke.cont:                                      ; preds = %entry
  ret void

lpad:                                             ; preds = %entry
  %3 = landingpad { ptr, i32 }
          cleanup
  %4 = extractvalue { ptr, i32 } %3, 0
  store ptr %4, ptr %exn.slot, align 8
  %5 = extractvalue { ptr, i32 } %3, 1
  store i32 %5, ptr %ehselector.slot, align 4
  call void @_ZNSt7__cxx1112basic_stringIcSt11char_traitsIcESaIcEED1Ev(ptr noundef nonnull align 8 dereferenceable(32) %first) #14
  br label %eh.resume

eh.resume:                                        ; preds = %lpad
  %exn = load ptr, ptr %exn.slot, align 8
  %sel = load i32, ptr %ehselector.slot, align 4
  %lpad.val = insertvalue { ptr, i32 } poison, ptr %exn, 0
  %lpad.val4 = insertvalue { ptr, i32 } %lpad.val, i32 %sel, 1
  resume { ptr, i32 } %lpad.val4
}

; Function Attrs: mustprogress nounwind uwtable
define internal noundef ptr @_ZN9__gnu_cxx16__aligned_membufISt4pairIKNSt7__cxx1112basic_stringIcSt11char_traitsIcESaIcEEEN8nlohmann16json_abi_v3_11_310basic_jsonISt3mapSt6vectorS7_blmdN12_GLOBAL__N_120allocator_no_forwardENSA_14adl_serializerESD_IhSaIhEEvEEEE7_M_addrEv(ptr noundef nonnull align 8 dereferenceable(48) %this) #1 align 2 {
entry:
  %this.addr = alloca ptr, align 8
  store ptr %this, ptr %this.addr, align 8
  %this1 = load ptr, ptr %this.addr, align 8
  %_M_storage = getelementptr inbounds %"struct.__gnu_cxx::__aligned_membuf.249", ptr %this1, i32 0, i32 0
  ret ptr %_M_storage
}

; Function Attrs: mustprogress uwtable
define internal void @_ZNSt16allocator_traitsIN12_GLOBAL__N_120allocator_no_forwardISt13_Rb_tree_nodeISt4pairIKNSt7__cxx1112basic_stringIcSt11char_traitsIcESaIcEEEN8nlohmann16json_abi_v3_11_310basic_jsonISt3mapSt6vectorS9_blmdS1_NSC_14adl_serializerESF_IhSaIhEEvEEEEEEE10deallocateERSM_PSL_m(ptr noundef nonnull align 1 dereferenceable(1) %__a, ptr noundef %__p, i64 noundef %__n) #4 align 2 {
entry:
  %__a.addr = alloca ptr, align 8
  %__p.addr = alloca ptr, align 8
  %__n.addr = alloca i64, align 8
  store ptr %__a, ptr %__a.addr, align 8
  store ptr %__p, ptr %__p.addr, align 8
  store i64 %__n, ptr %__n.addr, align 8
  %0 = load ptr, ptr %__a.addr, align 8
  %1 = load ptr, ptr %__p.addr, align 8
  %2 = load i64, ptr %__n.addr, align 8
  call void @_ZNSt15__new_allocatorISt13_Rb_tree_nodeISt4pairIKNSt7__cxx1112basic_stringIcSt11char_traitsIcESaIcEEEN8nlohmann16json_abi_v3_11_310basic_jsonISt3mapSt6vectorS7_blmdN12_GLOBAL__N_120allocator_no_forwardENSA_14adl_serializerESD_IhSaIhEEvEEEEE10deallocateEPSL_m(ptr noundef nonnull align 1 dereferenceable(1) %0, ptr noundef %1, i64 noundef %2)
  ret void
}

; Function Attrs: mustprogress uwtable
define internal void @_ZNSt16allocator_traitsIN12_GLOBAL__N_120allocator_no_forwardISt13_Rb_tree_nodeISt4pairIKNSt7__cxx1112basic_stringIcSt11char_traitsIcESaIcEEEN8nlohmann16json_abi_v3_11_310basic_jsonISt3mapSt6vectorS9_blmdS1_NSC_14adl_serializerESF_IhSaIhEEvEEEEEEE12_S_constructISK_JRKSK_EEENSt9enable_ifIXsr6__and_ISt6__and_IJSt6__not_INSN_18__construct_helperIT_JDpT0_EE4typeEESt16is_constructibleISV_JSX_EEEEEE5valueEvE4typeERSM_PSV_DpOSW_(ptr noundef nonnull align 1 dereferenceable(1) %0, ptr noundef %__p, ptr noundef nonnull align 8 dereferenceable(48) %__args) #4 align 2 {
entry:
  %.addr = alloca ptr, align 8
  %__p.addr = alloca ptr, align 8
  %__args.addr = alloca ptr, align 8
  store ptr %0, ptr %.addr, align 8
  store ptr %__p, ptr %__p.addr, align 8
  store ptr %__args, ptr %__args.addr, align 8
  %1 = load ptr, ptr %__p.addr, align 8
  %2 = load ptr, ptr %__args.addr, align 8
  call void @_ZNSt4pairIKNSt7__cxx1112basic_stringIcSt11char_traitsIcESaIcEEEN8nlohmann16json_abi_v3_11_310basic_jsonISt3mapSt6vectorS5_blmdN12_GLOBAL__N_120allocator_no_forwardENS8_14adl_serializerESB_IhSaIhEEvEEEC2ERKSI_(ptr noundef nonnull align 8 dereferenceable(48) %1, ptr noundef nonnull align 8 dereferenceable(48) %2)
  ret void
}

; Function Attrs: mustprogress nounwind uwtable
define internal noundef ptr @_ZN9__gnu_cxx16__aligned_membufISt4pairIKNSt7__cxx1112basic_stringIcSt11char_traitsIcESaIcEEEN8nlohmann16json_abi_v3_11_310basic_jsonISt3mapSt6vectorS7_blmdN12_GLOBAL__N_120allocator_no_forwardENSA_14adl_serializerESD_IhSaIhEEvEEEE6_M_ptrEv(ptr noundef nonnull align 8 dereferenceable(48) %this) #1 align 2 {
entry:
  %this.addr = alloca ptr, align 8
  store ptr %this, ptr %this.addr, align 8
  %this1 = load ptr, ptr %this.addr, align 8
  %call = call noundef ptr @_ZN9__gnu_cxx16__aligned_membufISt4pairIKNSt7__cxx1112basic_stringIcSt11char_traitsIcESaIcEEEN8nlohmann16json_abi_v3_11_310basic_jsonISt3mapSt6vectorS7_blmdN12_GLOBAL__N_120allocator_no_forwardENSA_14adl_serializerESD_IhSaIhEEvEEEE7_M_addrEv(ptr noundef nonnull align 8 dereferenceable(48) %this1) #14
  ret ptr %call
}

; Function Attrs: mustprogress nounwind uwtable
define internal void @_ZNSt8_Rb_treeINSt7__cxx1112basic_stringIcSt11char_traitsIcESaIcEEESt4pairIKS5_N8nlohmann16json_abi_v3_11_310basic_jsonISt3mapSt6vectorS5_blmdN12_GLOBAL__N_120allocator_no_forwardENS9_14adl_serializerESC_IhSaIhEEvEEESt10_Select1stISJ_ESt4lessIS5_ENSE_ISJ_EEE11_M_put_nodeEPSt13_Rb_tree_nodeISJ_E(ptr noundef nonnull align 8 dereferenceable(48) %this, ptr noundef %__p) #1 align 2 personality ptr @__gxx_personality_v0 {
entry:
  %this.addr = alloca ptr, align 8
  %__p.addr = alloca ptr, align 8
  store ptr %this, ptr %this.addr, align 8
  store ptr %__p, ptr %__p.addr, align 8
  %this1 = load ptr, ptr %this.addr, align 8
  %call = call noundef nonnull align 1 dereferenceable(1) ptr @_ZNSt8_Rb_treeINSt7__cxx1112basic_stringIcSt11char_traitsIcESaIcEEESt4pairIKS5_N8nlohmann16json_abi_v3_11_310basic_jsonISt3mapSt6vectorS5_blmdN12_GLOBAL__N_120allocator_no_forwardENS9_14adl_serializerESC_IhSaIhEEvEEESt10_Select1stISJ_ESt4lessIS5_ENSE_ISJ_EEE21_M_get_Node_allocatorEv(ptr noundef nonnull align 8 dereferenceable(48) %this1) #14
  %0 = load ptr, ptr %__p.addr, align 8
  invoke void @_ZNSt16allocator_traitsIN12_GLOBAL__N_120allocator_no_forwardISt13_Rb_tree_nodeISt4pairIKNSt7__cxx1112basic_stringIcSt11char_traitsIcESaIcEEEN8nlohmann16json_abi_v3_11_310basic_jsonISt3mapSt6vectorS9_blmdS1_NSC_14adl_serializerESF_IhSaIhEEvEEEEEEE10deallocateERSM_PSL_m(ptr noundef nonnull align 1 dereferenceable(1) %call, ptr noundef %0, i64 noundef 1)
          to label %invoke.cont unwind label %terminate.lpad

invoke.cont:                                      ; preds = %entry
  ret void

terminate.lpad:                                   ; preds = %entry
  %1 = landingpad { ptr, i32 }
          catch ptr null
  %2 = extractvalue { ptr, i32 } %1, 0
  call void @__clang_call_terminate(ptr %2) #15
  unreachable
}

; Function Attrs: mustprogress uwtable
define internal void @_ZNSt16allocator_traitsIN12_GLOBAL__N_120allocator_no_forwardISt13_Rb_tree_nodeISt4pairIKNSt7__cxx1112basic_stringIcSt11char_traitsIcESaIcEEEN8nlohmann16json_abi_v3_11_310basic_jsonISt3mapSt6vectorS9_blmdS1_NSC_14adl_serializerESF_IhSaIhEEvEEEEEEE9constructISK_JRKSK_EEEDTcl12_S_constructfp_fp0_spclsr3stdE7forwardIT0_Efp1_EEERSM_PT_DpOSR_(ptr noundef nonnull align 1 dereferenceable(1) %__a, ptr noundef %__p, ptr noundef nonnull align 8 dereferenceable(48) %__args) #4 align 2 {
entry:
  %__a.addr = alloca ptr, align 8
  %__p.addr = alloca ptr, align 8
  %__args.addr = alloca ptr, align 8
  store ptr %__a, ptr %__a.addr, align 8
  store ptr %__p, ptr %__p.addr, align 8
  store ptr %__args, ptr %__args.addr, align 8
  %0 = load ptr, ptr %__a.addr, align 8
  %1 = load ptr, ptr %__p.addr, align 8
  %2 = load ptr, ptr %__args.addr, align 8
  call void @_ZNSt16allocator_traitsIN12_GLOBAL__N_120allocator_no_forwardISt13_Rb_tree_nodeISt4pairIKNSt7__cxx1112basic_stringIcSt11char_traitsIcESaIcEEEN8nlohmann16json_abi_v3_11_310basic_jsonISt3mapSt6vectorS9_blmdS1_NSC_14adl_serializerESF_IhSaIhEEvEEEEEEE12_S_constructISK_JRKSK_EEENSt9enable_ifIXsr6__and_ISt6__and_IJSt6__not_INSN_18__construct_helperIT_JDpT0_EE4typeEESt16is_constructibleISV_JSX_EEEEEE5valueEvE4typeERSM_PSV_DpOSW_(ptr noundef nonnull align 1 dereferenceable(1) %0, ptr noundef %1, ptr noundef nonnull align 8 dereferenceable(48) %2)
  ret void
}

; Function Attrs: mustprogress nounwind uwtable
define internal noundef ptr @_ZNSt13_Rb_tree_nodeISt4pairIKNSt7__cxx1112basic_stringIcSt11char_traitsIcESaIcEEEN8nlohmann16json_abi_v3_11_310basic_jsonISt3mapSt6vectorS6_blmdN12_GLOBAL__N_120allocator_no_forwardENS9_14adl_serializerESC_IhSaIhEEvEEEE9_M_valptrEv(ptr noundef nonnull align 8 dereferenceable(80) %this) #1 align 2 {
entry:
  %this.addr = alloca ptr, align 8
  store ptr %this, ptr %this.addr, align 8
  %this1 = load ptr, ptr %this.addr, align 8
  %_M_storage = getelementptr inbounds %"struct.std::_Rb_tree_node.248", ptr %this1, i32 0, i32 1
  %call = call noundef ptr @_ZN9__gnu_cxx16__aligned_membufISt4pairIKNSt7__cxx1112basic_stringIcSt11char_traitsIcESaIcEEEN8nlohmann16json_abi_v3_11_310basic_jsonISt3mapSt6vectorS7_blmdN12_GLOBAL__N_120allocator_no_forwardENSA_14adl_serializerESD_IhSaIhEEvEEEE6_M_ptrEv(ptr noundef nonnull align 8 dereferenceable(48) %_M_storage) #14
  ret ptr %call
}

; Function Attrs: mustprogress nounwind uwtable
define internal noundef nonnull align 1 dereferenceable(1) ptr @_ZNSt8_Rb_treeINSt7__cxx1112basic_stringIcSt11char_traitsIcESaIcEEESt4pairIKS5_N8nlohmann16json_abi_v3_11_310basic_jsonISt3mapSt6vectorS5_blmdN12_GLOBAL__N_120allocator_no_forwardENS9_14adl_serializerESC_IhSaIhEEvEEESt10_Select1stISJ_ESt4lessIS5_ENSE_ISJ_EEE21_M_get_Node_allocatorEv(ptr noundef nonnull align 8 dereferenceable(48) %this) #1 align 2 {
entry:
  %this.addr = alloca ptr, align 8
  store ptr %this, ptr %this.addr, align 8
  %this1 = load ptr, ptr %this.addr, align 8
  %_M_impl = getelementptr inbounds %"class.std::_Rb_tree.205", ptr %this1, i32 0, i32 0
  ret ptr %_M_impl
}

; Function Attrs: mustprogress uwtable
define internal void @_ZNSt8_Rb_treeINSt7__cxx1112basic_stringIcSt11char_traitsIcESaIcEEESt4pairIKS5_N8nlohmann16json_abi_v3_11_310basic_jsonISt3mapSt6vectorS5_blmdN12_GLOBAL__N_120allocator_no_forwardENS9_14adl_serializerESC_IhSaIhEEvEEESt10_Select1stISJ_ESt4lessIS5_ENSE_ISJ_EEE17_M_construct_nodeIJRKSJ_EEEvPSt13_Rb_tree_nodeISJ_EDpOT_(ptr noundef nonnull align 8 dereferenceable(48) %this, ptr noundef %__node, ptr noundef nonnull align 8 dereferenceable(48) %__args) #4 align 2 personality ptr @__gxx_personality_v0 {
entry:
  %this.addr = alloca ptr, align 8
  %__node.addr = alloca ptr, align 8
  %__args.addr = alloca ptr, align 8
  %exn.slot = alloca ptr, align 8
  %ehselector.slot = alloca i32, align 4
  store ptr %this, ptr %this.addr, align 8
  store ptr %__node, ptr %__node.addr, align 8
  store ptr %__args, ptr %__args.addr, align 8
  %this1 = load ptr, ptr %this.addr, align 8
  %call = call noundef nonnull align 1 dereferenceable(1) ptr @_ZNSt8_Rb_treeINSt7__cxx1112basic_stringIcSt11char_traitsIcESaIcEEESt4pairIKS5_N8nlohmann16json_abi_v3_11_310basic_jsonISt3mapSt6vectorS5_blmdN12_GLOBAL__N_120allocator_no_forwardENS9_14adl_serializerESC_IhSaIhEEvEEESt10_Select1stISJ_ESt4lessIS5_ENSE_ISJ_EEE21_M_get_Node_allocatorEv(ptr noundef nonnull align 8 dereferenceable(48) %this1) #14
  %0 = load ptr, ptr %__node.addr, align 8
  %call2 = call noundef ptr @_ZNSt13_Rb_tree_nodeISt4pairIKNSt7__cxx1112basic_stringIcSt11char_traitsIcESaIcEEEN8nlohmann16json_abi_v3_11_310basic_jsonISt3mapSt6vectorS6_blmdN12_GLOBAL__N_120allocator_no_forwardENS9_14adl_serializerESC_IhSaIhEEvEEEE9_M_valptrEv(ptr noundef nonnull align 8 dereferenceable(80) %0)
  %1 = load ptr, ptr %__args.addr, align 8
  invoke void @_ZNSt16allocator_traitsIN12_GLOBAL__N_120allocator_no_forwardISt13_Rb_tree_nodeISt4pairIKNSt7__cxx1112basic_stringIcSt11char_traitsIcESaIcEEEN8nlohmann16json_abi_v3_11_310basic_jsonISt3mapSt6vectorS9_blmdS1_NSC_14adl_serializerESF_IhSaIhEEvEEEEEEE9constructISK_JRKSK_EEEDTcl12_S_constructfp_fp0_spclsr3stdE7forwardIT0_Efp1_EEERSM_PT_DpOSR_(ptr noundef nonnull align 1 dereferenceable(1) %call, ptr noundef %call2, ptr noundef nonnull align 8 dereferenceable(48) %1)
          to label %invoke.cont unwind label %lpad

invoke.cont:                                      ; preds = %entry
  br label %try.cont

lpad:                                             ; preds = %entry
  %2 = landingpad { ptr, i32 }
          catch ptr null
  %3 = extractvalue { ptr, i32 } %2, 0
  store ptr %3, ptr %exn.slot, align 8
  %4 = extractvalue { ptr, i32 } %2, 1
  store i32 %4, ptr %ehselector.slot, align 4
  br label %catch

catch:                                            ; preds = %lpad
  %exn = load ptr, ptr %exn.slot, align 8
  %5 = call ptr @__cxa_begin_catch(ptr %exn) #14
  %6 = load ptr, ptr %__node.addr, align 8
  call void @_ZNSt8_Rb_treeINSt7__cxx1112basic_stringIcSt11char_traitsIcESaIcEEESt4pairIKS5_N8nlohmann16json_abi_v3_11_310basic_jsonISt3mapSt6vectorS5_blmdN12_GLOBAL__N_120allocator_no_forwardENS9_14adl_serializerESC_IhSaIhEEvEEESt10_Select1stISJ_ESt4lessIS5_ENSE_ISJ_EEE11_M_put_nodeEPSt13_Rb_tree_nodeISJ_E(ptr noundef nonnull align 8 dereferenceable(48) %this1, ptr noundef %6) #14
  invoke void @__cxa_rethrow() #16
          to label %unreachable unwind label %lpad3

lpad3:                                            ; preds = %catch
  %7 = landingpad { ptr, i32 }
          cleanup
  %8 = extractvalue { ptr, i32 } %7, 0
  store ptr %8, ptr %exn.slot, align 8
  %9 = extractvalue { ptr, i32 } %7, 1
  store i32 %9, ptr %ehselector.slot, align 4
  invoke void @__cxa_end_catch()
          to label %invoke.cont4 unwind label %terminate.lpad

invoke.cont4:                                     ; preds = %lpad3
  br label %eh.resume

try.cont:                                         ; preds = %invoke.cont
  ret void

eh.resume:                                        ; preds = %invoke.cont4
  %exn5 = load ptr, ptr %exn.slot, align 8
  %sel = load i32, ptr %ehselector.slot, align 4
  %lpad.val = insertvalue { ptr, i32 } poison, ptr %exn5, 0
  %lpad.val6 = insertvalue { ptr, i32 } %lpad.val, i32 %sel, 1
  resume { ptr, i32 } %lpad.val6

terminate.lpad:                                   ; preds = %lpad3
  %10 = landingpad { ptr, i32 }
          catch ptr null
  %11 = extractvalue { ptr, i32 } %10, 0
  call void @__clang_call_terminate(ptr %11) #15
  unreachable

unreachable:                                      ; preds = %catch
  unreachable
}