; Function Attrs: mustprogress uwtable
define internal fastcc void @_ZNSt8_Rb_treeINSt7__cxx1112basic_stringIcSt11char_traitsIcESaIcEEESt4pairIKS5_N8nlohmann16json_abi_v3_11_310basic_jsonISt3mapSt6vectorS5_blmdN12_GLOBAL__N_120allocator_no_forwardENS9_14adl_serializerESC_IhSaIhEEvEEESt10_Select1stISJ_ESt4lessIS5_ENSE_ISJ_EEE17_M_construct_nodeIJRKSJ_EEEvPSt13_Rb_tree_nodeISJ_EDpOT_(ptr noundef %__node, ptr noundef nonnull align 8 dereferenceable(48) %__args) unnamed_addr #2 align 2 personality ptr @__gxx_personality_v0 {
entry:
  %_M_storage.i = getelementptr inbounds i8, ptr %__node, i64 32
  invoke void @_ZNSt7__cxx1112basic_stringIcSt11char_traitsIcESaIcEEC1ERKS4_(ptr noundef nonnull align 8 dereferenceable(32) %_M_storage.i, ptr noundef nonnull align 8 dereferenceable(32) %__args)
          to label %.noexc unwind label %lpad

.noexc:                                           ; preds = %entry
  %second.i.i = getelementptr inbounds i8, ptr %__node, i64 64
  %second3.i.i = getelementptr inbounds i8, ptr %__args, i64 32
  invoke fastcc void @_ZN8nlohmann16json_abi_v3_11_310basic_jsonISt3mapSt6vectorNSt7__cxx1112basic_stringIcSt11char_traitsIcESaIcEEEblmdN12_GLOBAL__N_120allocator_no_forwardENS0_14adl_serializerES3_IhSaIhEEvEC2ERKSF_(ptr noundef nonnull align 8 dereferenceable(16) %second.i.i, ptr noundef nonnull align 8 dereferenceable(16) %second3.i.i)
          to label %try.cont unwind label %lpad.i.i

lpad.i.i:                                         ; preds = %.noexc
  %0 = landingpad { ptr, i32 }
          catch ptr null
  tail call void @_ZNSt7__cxx1112basic_stringIcSt11char_traitsIcESaIcEED1Ev(ptr noundef nonnull align 8 dereferenceable(32) %_M_storage.i) #17
  br label %lpad.body

lpad:                                             ; preds = %entry
  %1 = landingpad { ptr, i32 }
          catch ptr null
  br label %lpad.body

lpad.body:                                        ; preds = %lpad.i.i, %lpad
  %eh.lpad-body = phi { ptr, i32 } [ %1, %lpad ], [ %0, %lpad.i.i ]
  %2 = extractvalue { ptr, i32 } %eh.lpad-body, 0
  %3 = tail call ptr @__cxa_begin_catch(ptr %2) #17
  tail call void @_ZdlPv(ptr noundef %__node) #21
  invoke void @__cxa_rethrow() #18
          to label %unreachable unwind label %lpad3

lpad3:                                            ; preds = %lpad.body
  %4 = landingpad { ptr, i32 }
          cleanup
  invoke void @__cxa_end_catch()
          to label %eh.resume unwind label %terminate.lpad

try.cont:                                         ; preds = %.noexc
  ret void

eh.resume:                                        ; preds = %lpad3
  resume { ptr, i32 } %4

terminate.lpad:                                   ; preds = %lpad3
  %5 = landingpad { ptr, i32 }
          catch ptr null
  %6 = extractvalue { ptr, i32 } %5, 0
  tail call void @__clang_call_terminate(ptr %6) #19
  unreachable

unreachable:                                      ; preds = %lpad.body
  unreachable
}